; Function Attrs: mustprogress nounwind uwtable
define dso_local void @_ZN4llvm16TargetPassConfig27addPassesToHandleExceptionsEv(ptr nocapture noundef nonnull align 8 dereferenceable(134) %0) local_unnamed_addr #0 align 2 {
  %2 = getelementptr inbounds nuw i8, ptr %0, i64 112
  %3 = load ptr, ptr %2, align 8
  %4 = getelementptr inbounds nuw i8, ptr %3, i64 672
  %5 = load ptr, ptr %4, align 8
  %6 = getelementptr inbounds nuw i8, ptr %5, i64 412
  %7 = load i32, ptr %6, align 4
  switch i32 %7, label %27 [
    i32 2, label %8
    i32 1, label %10
    i32 3, label %10
    i32 6, label %10
    i32 7, label %10
    i32 4, label %15
    i32 5, label %21
    i32 0, label %24
  ]

8:                                                ; preds = %1
  %9 = tail call noundef ptr @_ZN4llvm23createSjLjEHPreparePassEPKNS_13TargetMachineE(ptr noundef nonnull %3) #26
  tail call void @_ZN4llvm16TargetPassConfig7addPassEPNS_4PassE(ptr noundef nonnull align 8 dereferenceable(134) %0, ptr noundef %9)
  %.pre = load ptr, ptr %2, align 8
  br label %10

10:                                               ; preds = %8, %1, %1, %1, %1
  %11 = phi ptr [ %.pre, %8 ], [ %3, %1 ], [ %3, %1 ], [ %3, %1 ], [ %3, %1 ]
  %12 = getelementptr inbounds nuw i8, ptr %11, i64 664
  %13 = load i32, ptr %12, align 8
  %14 = tail call noundef ptr @_ZN4llvm17createDwarfEHPassENS_15CodeGenOptLevelE(i32 noundef %13) #26
  br label %.sink.split

15:                                               ; preds = %1
  %16 = tail call noundef ptr @_ZN4llvm15createWinEHPassEb(i1 noundef zeroext false) #26
  tail call void @_ZN4llvm16TargetPassConfig7addPassEPNS_4PassE(ptr noundef nonnull align 8 dereferenceable(134) %0, ptr noundef %16)
  %17 = load ptr, ptr %2, align 8
  %18 = getelementptr inbounds nuw i8, ptr %17, i64 664
  %19 = load i32, ptr %18, align 8
  %20 = tail call noundef ptr @_ZN4llvm17createDwarfEHPassENS_15CodeGenOptLevelE(i32 noundef %19) #26
  br label %.sink.split

21:                                               ; preds = %1
  %22 = tail call noundef ptr @_ZN4llvm15createWinEHPassEb(i1 noundef zeroext true) #26
  tail call void @_ZN4llvm16TargetPassConfig7addPassEPNS_4PassE(ptr noundef nonnull align 8 dereferenceable(134) %0, ptr noundef %22)
  %23 = tail call noundef ptr @_ZN4llvm16createWasmEHPassEv() #26
  br label %.sink.split

24:                                               ; preds = %1
  %25 = tail call noundef ptr @_ZN4llvm21createLowerInvokePassEv() #26
  tail call void @_ZN4llvm16TargetPassConfig7addPassEPNS_4PassE(ptr noundef nonnull align 8 dereferenceable(134) %0, ptr noundef %25)
  %26 = tail call noundef ptr @_ZN4llvm37createUnreachableBlockEliminationPassEv() #26
  br label %.sink.split

.sink.split:                                      ; preds = %10, %15, %21, %24
  %.sink = phi ptr [ %26, %24 ], [ %23, %21 ], [ %20, %15 ], [ %14, %10 ]
  tail call void @_ZN4llvm16TargetPassConfig7addPassEPNS_4PassE(ptr noundef nonnull align 8 dereferenceable(134) %0, ptr noundef %.sink)
  br label %27

27:                                               ; preds = %.sink.split, %1
  ret void
}